target datalayout = "e-m:e-p270:32:32-p271:32:32-p272:64:64-i64:64-i128:128-f80:128-n8:16:32:64-S128"
target triple = "x86_64-pc-linux-gnu"

@hf_ndmp_tape_device = internal global i32 0, align 4
@hf_ndmp_tape_attr = internal global i32 0, align 4
@hf_ndmp_tape_capability = internal global i32 0, align 4
@ett_ndmp_tape_attr = internal global i32 0, align 4
@dissect_tape_attr.attribute_flags = internal constant [3 x ptr] [ptr @hf_ndmp_tape_attr_unload, ptr @hf_ndmp_tape_attr_rewind, ptr null], align 16

; Function Attrs: null_pointer_is_valid sspstrong uwtable
define internal i32 @dissect_tape_attr(ptr noundef %0, i32 noundef %1, ptr noundef %2, ptr noundef %3) #0 {
  %5 = alloca ptr, align 8
  %6 = alloca i32, align 4
  %7 = alloca ptr, align 8
  %8 = alloca ptr, align 8
  store ptr %0, ptr %5, align 8
  store i32 %1, ptr %6, align 4
  store ptr %2, ptr %7, align 8
  store ptr %3, ptr %8, align 8
  %9 = load ptr, ptr %8, align 8
  %10 = load ptr, ptr %5, align 8
  %11 = load i32, ptr %6, align 4
  %12 = load i32, ptr @hf_ndmp_tape_attr, align 4
  %13 = load i32, ptr @ett_ndmp_tape_attr, align 4
  %14 = call ptr @proto_tree_add_bitmask(ptr noundef %9, ptr noundef %10, i32 noundef %11, i32 noundef %12, i32 noundef %13, ptr noundef @dissect_tape_attr.attribute_flags, i32 noundef 0)
  %15 = load i32, ptr %6, align 4
  %16 = add i32 %15, 4
  store i32 %16, ptr %6, align 4
  %17 = load i32, ptr %6, align 4
  ret i32 %17
}

; Function Attrs: null_pointer_is_valid sspstrong uwtable
define internal i32 @dissect_tape_dev_cap(ptr noundef %0, i32 noundef %1, ptr noundef %2, ptr noundef %3, ptr noundef %4) #0 {
  %6 = alloca ptr, align 8
  %7 = alloca i32, align 4
  %8 = alloca ptr, align 8
  %9 = alloca ptr, align 8
  %10 = alloca ptr, align 8
  store ptr %0, ptr %6, align 8
  store i32 %1, ptr %7, align 4
  store ptr %2, ptr %8, align 8
  store ptr %3, ptr %9, align 8
  store ptr %4, ptr %10, align 8
  %11 = load ptr, ptr %6, align 8
  %12 = load ptr, ptr %9, align 8
  %13 = load i32, ptr @hf_ndmp_tape_device, align 4
  %14 = load i32, ptr %7, align 4
  %15 = call i32 @dissect_rpc_string(ptr noundef %11, ptr noundef %12, i32 noundef %13, i32 noundef %14, ptr noundef null)
  store i32 %15, ptr %7, align 4
  %16 = load ptr, ptr %6, align 8
  %17 = load i32, ptr %7, align 4
  %18 = load ptr, ptr %8, align 8
  %19 = load ptr, ptr %9, align 8
  %20 = call i32 @dissect_tape_attr(ptr noundef %16, i32 noundef %17, ptr noundef %18, ptr noundef %19)
  store i32 %20, ptr %7, align 4
  %21 = load ptr, ptr %6, align 8
  %22 = load ptr, ptr %8, align 8
  %23 = load ptr, ptr %9, align 8
  %24 = load i32, ptr %7, align 4
  %25 = load i32, ptr @hf_ndmp_tape_capability, align 4
  %26 = call i32 @dissect_rpc_array(ptr noundef %21, ptr noundef %22, ptr noundef %23, i32 noundef %24, ptr noundef @dissect_tape_capability, i32 noundef %25)
  store i32 %26, ptr %7, align 4
  %27 = load i32, ptr %7, align 4
  ret i32 %27
}