; Function Attrs: null_pointer_is_valid sspstrong uwtable
define internal i32 @dissect_tape_dev_cap(ptr noundef %0, i32 noundef %1, ptr noundef %2, ptr noundef %3, ptr readnone captures(none) %4) #0 {
  %6 = load i32, ptr @hf_ndmp_tape_device, align 4
  %7 = tail call i32 @dissect_rpc_string(ptr noundef %0, ptr noundef %3, i32 noundef %6, i32 noundef %1, ptr noundef null)
  %8 = load i32, ptr @hf_ndmp_tape_attr, align 4
  %9 = load i32, ptr @ett_ndmp_tape_attr, align 4
  %10 = tail call ptr @proto_tree_add_bitmask(ptr noundef %3, ptr noundef %0, i32 noundef %7, i32 noundef %8, i32 noundef %9, ptr noundef nonnull @dissect_tape_attr.attribute_flags, i32 noundef 0)
  %11 = add i32 %7, 4
  %12 = load i32, ptr @hf_ndmp_tape_capability, align 4
  %13 = tail call i32 @dissect_rpc_array(ptr noundef %0, ptr noundef %2, ptr noundef %3, i32 noundef %11, ptr noundef nonnull @dissect_tape_capability, i32 noundef %12)
  ret i32 %13
}